; Function Attrs: null_pointer_is_valid sspstrong uwtable
define internal fastcc void @huawei_auth_acc(ptr noundef %0, ptr noundef %1) unnamed_addr #0 {
  %3 = alloca i32, align 4
  call void @llvm.lifetime.start.p0(i64 4, ptr nonnull %3) #10
  %4 = load i32, ptr @hf_smpp_error_code, align 4
  %5 = call ptr @proto_tree_add_item_ret_uint(ptr noundef %0, i32 noundef %4, ptr noundef %1, i32 noundef 16, i32 noundef 1, i32 noundef 0, ptr noundef nonnull %3)
  %6 = load i32, ptr @hf_huawei_smpp_smsc_addr, align 4
  %7 = call i32 @tvb_strsize(ptr noundef %1, i32 noundef 17)
  %8 = icmp ugt i32 %7, 1
  br i1 %8, label %9, label %smpp_handle_string.exit

9:                                                ; preds = %2
  %10 = call ptr @proto_tree_add_item(ptr noundef %0, i32 noundef %6, ptr noundef %1, i32 noundef 17, i32 noundef %7, i32 noundef 0)
  br label %smpp_handle_string.exit

smpp_handle_string.exit:                          ; preds = %2, %9
  %11 = add i32 %7, 17
  %12 = load i32, ptr %3, align 4
  %13 = icmp eq i32 %12, 51
  br i1 %13, label %14, label %27

14:                                               ; preds = %smpp_handle_string.exit
  %15 = load i32, ptr @hf_huawei_smpp_msc_addr_noa, align 4
  %16 = call ptr @proto_tree_add_item(ptr noundef %0, i32 noundef %15, ptr noundef %1, i32 noundef %11, i32 noundef 1, i32 noundef 0)
  %17 = add i32 %7, 18
  %18 = load i32, ptr @hf_huawei_smpp_msc_addr_npi, align 4
  %19 = call ptr @proto_tree_add_item(ptr noundef %0, i32 noundef %18, ptr noundef %1, i32 noundef %17, i32 noundef 1, i32 noundef 0)
  %20 = add i32 %7, 19
  %21 = load i32, ptr @hf_huawei_smpp_msc_addr, align 4
  %22 = call i32 @tvb_strsize(ptr noundef %1, i32 noundef %20)
  %23 = icmp ugt i32 %22, 1
  br i1 %23, label %24, label %smpp_handle_string.exit22

24:                                               ; preds = %14
  %25 = call ptr @proto_tree_add_item(ptr noundef %0, i32 noundef %21, ptr noundef %1, i32 noundef %20, i32 noundef %22, i32 noundef 0)
  br label %smpp_handle_string.exit22

smpp_handle_string.exit22:                        ; preds = %14, %24
  %26 = add i32 %22, %20
  br label %27

27:                                               ; preds = %smpp_handle_string.exit22, %smpp_handle_string.exit
  %.0 = phi i32 [ %26, %smpp_handle_string.exit22 ], [ %11, %smpp_handle_string.exit ]
  %28 = load i32, ptr @hf_smpp_source_addr, align 4
  %29 = call i32 @tvb_strsize(ptr noundef %1, i32 noundef %.0)
  %30 = icmp ugt i32 %29, 1
  br i1 %30, label %31, label %smpp_handle_string.exit23

31:                                               ; preds = %27
  %32 = call ptr @proto_tree_add_item(ptr noundef %0, i32 noundef %28, ptr noundef %1, i32 noundef %.0, i32 noundef %29, i32 noundef 0)
  br label %smpp_handle_string.exit23

smpp_handle_string.exit23:                        ; preds = %27, %31
  %33 = add i32 %29, %.0
  %34 = load i32, ptr @hf_smpp_destination_addr, align 4
  %35 = call i32 @tvb_strsize(ptr noundef %1, i32 noundef %33)
  %36 = icmp ugt i32 %35, 1
  br i1 %36, label %37, label %smpp_handle_string.exit24

37:                                               ; preds = %smpp_handle_string.exit23
  %38 = call ptr @proto_tree_add_item(ptr noundef %0, i32 noundef %34, ptr noundef %1, i32 noundef %33, i32 noundef %35, i32 noundef 0)
  br label %smpp_handle_string.exit24

smpp_handle_string.exit24:                        ; preds = %smpp_handle_string.exit23, %37
  %39 = add i32 %35, %33
  %40 = load i32, ptr @hf_huawei_smpp_mo_mt_flag, align 4
  %41 = call ptr @proto_tree_add_item(ptr noundef %0, i32 noundef %40, ptr noundef %1, i32 noundef %39, i32 noundef 1, i32 noundef 0)
  %42 = add i32 %39, 1
  %43 = load i32, ptr @hf_huawei_smpp_sm_id, align 4
  %44 = call i32 @tvb_strsize(ptr noundef %1, i32 noundef %42)
  %45 = icmp ugt i32 %44, 1
  br i1 %45, label %46, label %smpp_handle_string.exit25

46:                                               ; preds = %smpp_handle_string.exit24
  %47 = call ptr @proto_tree_add_item(ptr noundef %0, i32 noundef %43, ptr noundef %1, i32 noundef %42, i32 noundef %44, i32 noundef 0)
  br label %smpp_handle_string.exit25

smpp_handle_string.exit25:                        ; preds = %smpp_handle_string.exit24, %46
  %48 = add i32 %44, %42
  %49 = load i32, ptr @hf_huawei_smpp_length_auth, align 4
  %50 = call ptr @proto_tree_add_item(ptr noundef %0, i32 noundef %49, ptr noundef %1, i32 noundef %48, i32 noundef 4, i32 noundef 0)
  %51 = add i32 %48, 4
  %52 = load i32, ptr @hf_huawei_smpp_service_id, align 4
  %53 = call ptr @proto_tree_add_item(ptr noundef %0, i32 noundef %52, ptr noundef %1, i32 noundef %51, i32 noundef 4, i32 noundef 0)
  call void @llvm.lifetime.end.p0(i64 4, ptr nonnull %3) #10
  ret void
}